target datalayout = "e-m:e-p270:32:32-p271:32:32-p272:64:64-i64:64-i128:128-f80:128-n8:16:32:64-S128"
target triple = "x86_64-pc-linux-gnu"

%struct._Unwind_Exception = type { i64, ptr, i64, i64 }
%"struct.__cxxabiv1::__cxa_exception" = type { ptr, i64, ptr, ptr, ptr, ptr, ptr, i32, i32, ptr, ptr, ptr, ptr, %struct._Unwind_Exception }
%"struct.__cxxabiv1::__cxa_eh_globals" = type { ptr, i32 }

; Function Attrs: mustprogress nounwind uwtable
define hidden noundef i64 @_ZN10__cxxabiv119__getExceptionClassEPK17_Unwind_Exception(ptr noundef %0) #0 {
  %2 = alloca ptr, align 8
  %3 = alloca i64, align 8
  store ptr %0, ptr %2, align 8, !tbaa !4
  call void @llvm.lifetime.start.p0(i64 8, ptr %3) #14
  %4 = load ptr, ptr %2, align 8, !tbaa !4
  %5 = getelementptr inbounds nuw %struct._Unwind_Exception, ptr %4, i32 0, i32 0
  call void @llvm.memcpy.p0.p0.i64(ptr align 8 %3, ptr align 16 %5, i64 8, i1 false)
  %6 = load i64, ptr %3, align 8, !tbaa !9
  call void @llvm.lifetime.end.p0(i64 8, ptr %3) #14
  ret i64 %6
}

; Function Attrs: inlinehint mustprogress nounwind uwtable
define internal noundef ptr @_ZN10__cxxabiv1L45cxa_exception_from_exception_unwind_exceptionEP17_Unwind_Exception(ptr noundef %0) #8 {
  %2 = alloca ptr, align 8
  store ptr %0, ptr %2, align 8, !tbaa !4
  %3 = load ptr, ptr %2, align 8, !tbaa !4
  %4 = getelementptr inbounds %struct._Unwind_Exception, ptr %3, i64 1
  %5 = call noundef ptr @_ZN10__cxxabiv1L32cxa_exception_from_thrown_objectEPv(ptr noundef %4)
  ret ptr %5
}

; Function Attrs: mustprogress nounwind uwtable
define hidden noundef zeroext i1 @_ZN10__cxxabiv121__isOurExceptionClassEPK17_Unwind_Exception(ptr noundef %0) #0 {
  %2 = alloca ptr, align 8
  store ptr %0, ptr %2, align 8, !tbaa !4
  %3 = load ptr, ptr %2, align 8, !tbaa !4
  %4 = call noundef i64 @_ZN10__cxxabiv119__getExceptionClassEPK17_Unwind_Exception(ptr noundef %3)
  %5 = and i64 %4, -256
  %6 = icmp eq i64 %5, 4849336966747728640
  ret i1 %6
}

; Function Attrs: mustprogress nounwind uwtable
define dso_local ptr @__cxa_begin_catch(ptr %0) #5 personality ptr @__gxx_personality_v0 {
  %2 = alloca ptr, align 8
  %3 = alloca ptr, align 8
  %4 = alloca ptr, align 8
  %5 = alloca i8, align 1
  %6 = alloca ptr, align 8
  %7 = alloca ptr, align 8
  %8 = alloca i32, align 4
  store ptr %0, ptr %3, align 8, !tbaa !15
  call void @llvm.lifetime.start.p0(i64 8, ptr %4) #14
  %9 = load ptr, ptr %3, align 8, !tbaa !15
  store ptr %9, ptr %4, align 8, !tbaa !4
  call void @llvm.lifetime.start.p0(i64 1, ptr %5) #14
  %10 = load ptr, ptr %4, align 8, !tbaa !4
  %11 = call noundef zeroext i1 @_ZN10__cxxabiv121__isOurExceptionClassEPK17_Unwind_Exception(ptr noundef %10)
  %12 = zext i1 %11 to i8
  store i8 %12, ptr %5, align 1, !tbaa !16
  call void @llvm.lifetime.start.p0(i64 8, ptr %6) #14
  %13 = invoke ptr @__cxa_get_globals()
          to label %14 unwind label %76

14:                                               ; preds = %1
  store ptr %13, ptr %6, align 8, !tbaa !18
  call void @llvm.lifetime.start.p0(i64 8, ptr %7) #14
  %15 = load ptr, ptr %4, align 8, !tbaa !4
  %16 = invoke noundef ptr @_ZN10__cxxabiv1L45cxa_exception_from_exception_unwind_exceptionEP17_Unwind_Exception(ptr noundef %15)
          to label %17 unwind label %76

17:                                               ; preds = %14
  store ptr %16, ptr %7, align 8, !tbaa !13
  %18 = load i8, ptr %5, align 1, !tbaa !16, !range !20, !noundef !21
  %19 = trunc i8 %18 to i1
  br i1 %19, label %20, label %62

20:                                               ; preds = %17
  %21 = load ptr, ptr %7, align 8, !tbaa !13
  %22 = getelementptr inbounds nuw %"struct.__cxxabiv1::__cxa_exception", ptr %21, i32 0, i32 7
  %23 = load i32, ptr %22, align 8, !tbaa !22
  %24 = icmp slt i32 %23, 0
  br i1 %24, label %25, label %31

25:                                               ; preds = %20
  %26 = load ptr, ptr %7, align 8, !tbaa !13
  %27 = getelementptr inbounds nuw %"struct.__cxxabiv1::__cxa_exception", ptr %26, i32 0, i32 7
  %28 = load i32, ptr %27, align 8, !tbaa !22
  %29 = sub nsw i32 0, %28
  %30 = add nsw i32 %29, 1
  br label %36

31:                                               ; preds = %20
  %32 = load ptr, ptr %7, align 8, !tbaa !13
  %33 = getelementptr inbounds nuw %"struct.__cxxabiv1::__cxa_exception", ptr %32, i32 0, i32 7
  %34 = load i32, ptr %33, align 8, !tbaa !22
  %35 = add nsw i32 %34, 1
  br label %36

36:                                               ; preds = %31, %25
  %37 = phi i32 [ %30, %25 ], [ %35, %31 ]
  %38 = load ptr, ptr %7, align 8, !tbaa !13
  %39 = getelementptr inbounds nuw %"struct.__cxxabiv1::__cxa_exception", ptr %38, i32 0, i32 7
  store i32 %37, ptr %39, align 8, !tbaa !22
  %40 = load ptr, ptr %7, align 8, !tbaa !13
  %41 = load ptr, ptr %6, align 8, !tbaa !18
  %42 = getelementptr inbounds nuw %"struct.__cxxabiv1::__cxa_eh_globals", ptr %41, i32 0, i32 0
  %43 = load ptr, ptr %42, align 8, !tbaa !27
  %44 = icmp ne ptr %40, %43
  br i1 %44, label %45, label %54

45:                                               ; preds = %36
  %46 = load ptr, ptr %6, align 8, !tbaa !18
  %47 = getelementptr inbounds nuw %"struct.__cxxabiv1::__cxa_eh_globals", ptr %46, i32 0, i32 0
  %48 = load ptr, ptr %47, align 8, !tbaa !27
  %49 = load ptr, ptr %7, align 8, !tbaa !13
  %50 = getelementptr inbounds nuw %"struct.__cxxabiv1::__cxa_exception", ptr %49, i32 0, i32 6
  store ptr %48, ptr %50, align 16, !tbaa !29
  %51 = load ptr, ptr %7, align 8, !tbaa !13
  %52 = load ptr, ptr %6, align 8, !tbaa !18
  %53 = getelementptr inbounds nuw %"struct.__cxxabiv1::__cxa_eh_globals", ptr %52, i32 0, i32 0
  store ptr %51, ptr %53, align 8, !tbaa !27
  br label %54

54:                                               ; preds = %45, %36
  %55 = load ptr, ptr %6, align 8, !tbaa !18
  %56 = getelementptr inbounds nuw %"struct.__cxxabiv1::__cxa_eh_globals", ptr %55, i32 0, i32 1
  %57 = load i32, ptr %56, align 8, !tbaa !30
  %58 = sub i32 %57, 1
  store i32 %58, ptr %56, align 8, !tbaa !30
  %59 = load ptr, ptr %7, align 8, !tbaa !13
  %60 = getelementptr inbounds nuw %"struct.__cxxabiv1::__cxa_exception", ptr %59, i32 0, i32 12
  %61 = load ptr, ptr %60, align 8, !tbaa !31
  store ptr %61, ptr %2, align 8
  store i32 1, ptr %8, align 4
  br label %74

62:                                               ; preds = %17
  %63 = load ptr, ptr %6, align 8, !tbaa !18
  %64 = getelementptr inbounds nuw %"struct.__cxxabiv1::__cxa_eh_globals", ptr %63, i32 0, i32 0
  %65 = load ptr, ptr %64, align 8, !tbaa !27
  %66 = icmp ne ptr %65, null
  br i1 %66, label %67, label %68

67:                                               ; preds = %62
  call void @_ZSt9terminatev() #15
  unreachable

68:                                               ; preds = %62
  %69 = load ptr, ptr %7, align 8, !tbaa !13
  %70 = load ptr, ptr %6, align 8, !tbaa !18
  %71 = getelementptr inbounds nuw %"struct.__cxxabiv1::__cxa_eh_globals", ptr %70, i32 0, i32 0
  store ptr %69, ptr %71, align 8, !tbaa !27
  %72 = load ptr, ptr %4, align 8, !tbaa !4
  %73 = getelementptr inbounds %struct._Unwind_Exception, ptr %72, i64 1
  store ptr %73, ptr %2, align 8
  store i32 1, ptr %8, align 4
  br label %74

74:                                               ; preds = %68, %54
  call void @llvm.lifetime.end.p0(i64 8, ptr %7) #14
  call void @llvm.lifetime.end.p0(i64 8, ptr %6) #14
  call void @llvm.lifetime.end.p0(i64 1, ptr %5) #14
  call void @llvm.lifetime.end.p0(i64 8, ptr %4) #14
  %75 = load ptr, ptr %2, align 8
  ret ptr %75

76:                                               ; preds = %14, %1
  %77 = landingpad { ptr, i32 }
          catch ptr null
  %78 = extractvalue { ptr, i32 } %77, 0
  call void @__clang_call_terminate(ptr %78) #15
  unreachable
}

; Function Attrs: mustprogress nounwind uwtable
define hidden void @_ZN10__cxxabiv119__setExceptionClassEP17_Unwind_Exceptionm(ptr noundef %0, i64 noundef %1) #0 {
  %3 = alloca ptr, align 8
  %4 = alloca i64, align 8
  store ptr %0, ptr %3, align 8, !tbaa !4
  store i64 %1, ptr %4, align 8, !tbaa !9
  %5 = load ptr, ptr %3, align 8, !tbaa !4
  %6 = getelementptr inbounds nuw %struct._Unwind_Exception, ptr %5, i32 0, i32 0
  call void @llvm.memcpy.p0.p0.i64(ptr align 16 %6, ptr align 8 %4, i64 8, i1 false)
  ret void
}

; Function Attrs: noinline noreturn nounwind uwtable
define linkonce_odr hidden void @__clang_call_terminate(ptr noundef %0) #4 comdat {
  %2 = call ptr @__cxa_begin_catch(ptr %0) #14
  call void @_ZSt9terminatev() #15
  unreachable
}

; Function Attrs: mustprogress nounwind uwtable
define internal void @_ZN10__cxxabiv1L20setOurExceptionClassEP17_Unwind_Exception(ptr noundef %0) #0 {
  %2 = alloca ptr, align 8
  store ptr %0, ptr %2, align 8, !tbaa !4
  %3 = load ptr, ptr %2, align 8, !tbaa !4
  call void @_ZN10__cxxabiv119__setExceptionClassEP17_Unwind_Exceptionm(ptr noundef %3, i64 noundef 4849336966747728640)
  ret void
}

; Function Attrs: inlinehint mustprogress nounwind uwtable
define internal noundef ptr @_ZN10__cxxabiv1L32cxa_exception_from_thrown_objectEPv(ptr noundef %0) #8 {
  %2 = alloca ptr, align 8
  store ptr %0, ptr %2, align 8, !tbaa !15
  %3 = load ptr, ptr %2, align 8, !tbaa !15
  %4 = getelementptr inbounds %"struct.__cxxabiv1::__cxa_exception", ptr %3, i64 -1
  ret ptr %4
}

; Function Attrs: mustprogress nounwind uwtable
define dso_local ptr @__cxa_init_primary_exception(ptr noundef %0, ptr noundef %1, ptr noundef %2) #0 personality ptr @__gxx_personality_v0 {
  %4 = alloca ptr, align 8
  %5 = alloca ptr, align 8
  %6 = alloca ptr, align 8
  %7 = alloca ptr, align 8
  store ptr %0, ptr %4, align 8, !tbaa !15
  store ptr %1, ptr %5, align 8, !tbaa !32
  store ptr %2, ptr %6, align 8, !tbaa !15
  call void @llvm.lifetime.start.p0(i64 8, ptr %7) #14
  %8 = load ptr, ptr %4, align 8, !tbaa !15
  %9 = invoke noundef ptr @_ZN10__cxxabiv1L32cxa_exception_from_thrown_objectEPv(ptr noundef %8)
          to label %10 unwind label %32

10:                                               ; preds = %3
  store ptr %9, ptr %7, align 8, !tbaa !13
  %11 = load ptr, ptr %7, align 8, !tbaa !13
  %12 = getelementptr inbounds nuw %"struct.__cxxabiv1::__cxa_exception", ptr %11, i32 0, i32 1
  store i64 0, ptr %12, align 8, !tbaa !33
  %13 = call noundef ptr @_ZSt14get_unexpectedv() #14
  %14 = load ptr, ptr %7, align 8, !tbaa !13
  %15 = getelementptr inbounds nuw %"struct.__cxxabiv1::__cxa_exception", ptr %14, i32 0, i32 4
  store ptr %13, ptr %15, align 16, !tbaa !34
  %16 = call noundef ptr @_ZSt13get_terminatev() #14
  %17 = load ptr, ptr %7, align 8, !tbaa !13
  %18 = getelementptr inbounds nuw %"struct.__cxxabiv1::__cxa_exception", ptr %17, i32 0, i32 5
  store ptr %16, ptr %18, align 8, !tbaa !35
  %19 = load ptr, ptr %5, align 8, !tbaa !32
  %20 = load ptr, ptr %7, align 8, !tbaa !13
  %21 = getelementptr inbounds nuw %"struct.__cxxabiv1::__cxa_exception", ptr %20, i32 0, i32 2
  store ptr %19, ptr %21, align 16, !tbaa !36
  %22 = load ptr, ptr %6, align 8, !tbaa !15
  %23 = load ptr, ptr %7, align 8, !tbaa !13
  %24 = getelementptr inbounds nuw %"struct.__cxxabiv1::__cxa_exception", ptr %23, i32 0, i32 3
  store ptr %22, ptr %24, align 8, !tbaa !37
  %25 = load ptr, ptr %7, align 8, !tbaa !13
  %26 = getelementptr inbounds nuw %"struct.__cxxabiv1::__cxa_exception", ptr %25, i32 0, i32 13
  invoke void @_ZN10__cxxabiv1L20setOurExceptionClassEP17_Unwind_Exception(ptr noundef %26)
          to label %27 unwind label %32

27:                                               ; preds = %10
  %28 = load ptr, ptr %7, align 8, !tbaa !13
  %29 = getelementptr inbounds nuw %"struct.__cxxabiv1::__cxa_exception", ptr %28, i32 0, i32 13
  %30 = getelementptr inbounds nuw %struct._Unwind_Exception, ptr %29, i32 0, i32 1
  store ptr @_ZN10__cxxabiv1L22exception_cleanup_funcE19_Unwind_Reason_CodeP17_Unwind_Exception, ptr %30, align 8, !tbaa !38
  %31 = load ptr, ptr %7, align 8, !tbaa !13
  call void @llvm.lifetime.end.p0(i64 8, ptr %7) #14
  ret ptr %31

32:                                               ; preds = %10, %3
  %33 = landingpad { ptr, i32 }
          catch ptr null
  %34 = extractvalue { ptr, i32 } %33, 0
  call void @__clang_call_terminate(ptr %34) #15
  unreachable
}