; Function Attrs: mustprogress nounwind uwtable
define dso_local nonnull ptr @__cxa_init_primary_exception(ptr noundef writeonly captures(ret: address, provenance) initializes((-120, -80), (-32, -16)) %0, ptr noundef %1, ptr noundef %2) local_unnamed_addr #2 personality ptr @__gxx_personality_v0 {
  %4 = getelementptr inbounds i8, ptr %0, i64 -128
  %5 = getelementptr inbounds i8, ptr %0, i64 -120
  store i64 0, ptr %5, align 8, !tbaa !20
  %6 = tail call noundef ptr @_ZSt14get_unexpectedv() #17
  %7 = getelementptr inbounds i8, ptr %0, i64 -96
  store ptr %6, ptr %7, align 16, !tbaa !21
  %8 = tail call noundef ptr @_ZSt13get_terminatev() #17
  %9 = getelementptr inbounds i8, ptr %0, i64 -88
  store ptr %8, ptr %9, align 8, !tbaa !22
  %10 = getelementptr inbounds i8, ptr %0, i64 -112
  store ptr %1, ptr %10, align 16, !tbaa !23
  %11 = getelementptr inbounds i8, ptr %0, i64 -104
  store ptr %2, ptr %11, align 8, !tbaa !24
  %12 = getelementptr inbounds i8, ptr %0, i64 -32
  store i64 4849336966747728640, ptr %12, align 16
  %13 = getelementptr inbounds i8, ptr %0, i64 -24
  store ptr @_ZN10__cxxabiv1L22exception_cleanup_funcE19_Unwind_Reason_CodeP17_Unwind_Exception, ptr %13, align 8, !tbaa !25
  ret ptr %4
}